Certificate:
    Data:
        Version: 3 (0x2)
        Serial Number: 6 (0x6)
        Signature Algorithm: sha256WithRSAEncryption
        Issuer: C=PT, ST=Coimbra, L=Coimbra, O=UC, OU=DEI, CN=CA-Coimbra/emailAddress=ca-coimbra@gmail.com
        Validity
            Not Before: Mar 10 23:08:39 2022 GMT
            Not After : Mar 10 23:08:39 2023 GMT
        Subject: C=PT, ST=Coimbra, O=UC, OU=DEI, CN=Apache/emailAddress=apache@gmail.com
        Subject Public Key Info:
            Public Key Algorithm: rsaEncryption
                RSA Public-Key: (2048 bit)
                Modulus:
                    00:b8:e7:fd:77:e6:ba:31:3d:d0:de:89:b4:ca:54:
                    0d:6e:33:2f:ea:5b:a9:17:8b:96:14:8e:e8:94:8a:
                    7e:2e:1d:0b:c2:84:b4:ec:df:bf:d9:73:c2:97:3f:
                    9b:dc:4b:1f:db:3d:06:6f:54:eb:1a:56:69:f6:5d:
                    62:4b:e4:58:66:b7:c3:a0:96:d8:f3:e9:67:67:7b:
                    24:5a:8d:93:2c:33:6e:52:02:cd:b9:1c:bf:b7:be:
                    aa:21:02:c0:cf:4e:f1:c9:f0:9a:05:d4:a4:11:0d:
                    39:00:e2:44:4c:3b:91:e5:91:95:2f:38:7b:4d:ca:
                    ae:ba:7b:f9:74:34:2e:d9:d9:ff:64:7d:d5:9c:05:
                    ec:20:68:da:60:b4:c1:f2:ff:ce:e0:90:54:c7:7f:
                    1c:38:a9:02:4e:fd:f0:b6:eb:80:2a:f6:2c:c6:9a:
                    33:b0:a6:e5:5f:e8:f4:99:52:e9:46:d2:e9:d7:a4:
                    67:bb:bc:df:b4:81:04:e7:29:b4:47:15:a5:4c:ee:
                    b3:52:0b:06:cf:ae:b5:63:56:25:99:fd:30:b4:ba:
                    d9:5c:dd:04:0c:bd:4f:f1:fb:15:d3:e1:b3:e8:85:
                    96:8a:75:e2:90:6c:04:2e:81:82:3a:22:6c:80:91:
                    ba:12:59:6a:38:05:53:b9:1b:02:14:6f:4a:b5:54:
                    e0:6f
                Exponent: 65537 (0x10001)
        X509v3 extensions:
            X509v3 Basic Constraints: 
                CA:FALSE
            Netscape Comment: 
                OpenSSL Generated Certificate
            X509v3 Subject Key Identifier: 
                15:30:EE:D1:A2:5B:9D:80:60:FD:3C:66:CE:C2:25:95:13:43:7F:B1
            X509v3 Authority Key Identifier: 
                DirName:/C=PT/ST=Coimbra/L=Coimbra/O=UC/OU=DEI/CN=CA-Coimbra/emailAddress=ca-coimbra@gmail.com
                serial:41:12:1B:51:63:C6:99:08:DB:2C:81:E7:4C:04:34:D5:3E:F6:E4:CD

            Authority Information Access: 
                OCSP - URI:http://127.0.0.1:81

    Signature Algorithm: sha256WithRSAEncryption
         a4:d8:6d:4c:02:1d:0e:be:5c:23:05:4d:b0:3c:14:c9:9b:f6:
         48:da:bc:48:50:5a:82:c4:a3:94:53:91:fa:ec:f4:fa:21:ea:
         d8:1b:56:93:2e:cc:b9:72:d5:ee:75:ba:6f:27:e7:5d:40:7e:
         07:9f:78:c4:19:2c:97:20:ca:86:a5:e1:5c:bc:03:26:f0:73:
         81:09:bf:8c:4b:b7:ff:ec:58:e3:37:b9:20:42:40:fa:07:27:
         85:d4:4b:a4:f9:2c:83:e8:18:2b:b5:06:61:bd:5a:c8:8e:1f:
         1c:a1:53:b9:61:69:97:e0:cb:86:d6:2b:f0:16:77:65:fa:7b:
         98:6a:48:15:c4:9c:1f:83:9a:87:d3:c6:55:2b:45:ec:6b:ae:
         13:5e:6c:e4:13:a6:21:d0:fb:20:49:8c:92:69:5e:0f:d5:06:
         36:98:37:01:df:b6:2b:13:29:62:2e:b4:64:cd:b8:f9:85:df:
         59:63:9b:af:3f:1e:0f:02:d5:73:a0:b4:38:40:08:1a:c1:8b:
         a3:cf:c9:76:62:91:87:31:83:a6:98:8b:e5:f1:d4:29:c6:c0:
         4b:ba:15:5b:f3:4c:17:c4:5e:ae:64:37:20:ee:28:6a:46:e9:
         83:87:ce:43:a8:66:d8:38:c7:4c:be:bc:ff:ed:bb:1c:17:5b:
         fd:1b:6a:4d
-----BEGIN CERTIFICATE-----
MIIEsDCCA5igAwIBAgIBBjANBgkqhkiG9w0BAQsFADCBhjELMAkGA1UEBhMCUFQx
EDAOBgNVBAgMB0NvaW1icmExEDAOBgNVBAcMB0NvaW1icmExCzAJBgNVBAoMAlVD
MQwwCgYDVQQLDANERUkxEzARBgNVBAMMCkNBLUNvaW1icmExIzAhBgkqhkiG9w0B
CQEWFGNhLWNvaW1icmFAZ21haWwuY29tMB4XDTIyMDMxMDIzMDgzOVoXDTIzMDMx
MDIzMDgzOVowbDELMAkGA1UEBhMCUFQxEDAOBgNVBAgMB0NvaW1icmExCzAJBgNV
BAoMAlVDMQwwCgYDVQQLDANERUkxDzANBgNVBAMMBkFwYWNoZTEfMB0GCSqGSIb3
DQEJARYQYXBhY2hlQGdtYWlsLmNvbTCCASIwDQYJKoZIhvcNAQEBBQADggEPADCC
AQoCggEBALjn/XfmujE90N6JtMpUDW4zL+pbqReLlhSO6JSKfi4dC8KEtOzfv9lz
wpc/m9xLH9s9Bm9U6xpWafZdYkvkWGa3w6CW2PPpZ2d7JFqNkywzblICzbkcv7e+
qiECwM9O8cnwmgXUpBENOQDiREw7keWRlS84e03Krrp7+XQ0LtnZ/2R91ZwF7CBo
2mC0wfL/zuCQVMd/HDipAk798LbrgCr2LMaaM7Cm5V/o9JlS6UbS6dekZ7u837SB
BOcptEcVpUzus1ILBs+utWNWJZn9MLS62VzdBAy9T/H7FdPhs+iFlop14pBsBC6B
gjoibICRuhJZajgFU7kbAhRvSrVU4G8CAwEAAaOCAUAwggE8MAkGA1UdEwQCMAAw
LAYJYIZIAYb4QgENBB8WHU9wZW5TU0wgR2VuZXJhdGVkIENlcnRpZmljYXRlMB0G
A1UdDgQWBBQVMO7RoludgGD9PGbOwiWVE0N/sTCBsAYDVR0jBIGoMIGloYGMpIGJ
MIGGMQswCQYDVQQGEwJQVDEQMA4GA1UECAwHQ29pbWJyYTEQMA4GA1UEBwwHQ29p
bWJyYTELMAkGA1UECgwCVUMxDDAKBgNVBAsMA0RFSTETMBEGA1UEAwwKQ0EtQ29p
bWJyYTEjMCEGCSqGSIb3DQEJARYUY2EtY29pbWJyYUBnbWFpbC5jb22CFEESG1Fj
xpkI2yyB50wENNU+9uTNMC8GCCsGAQUFBwEBBCMwITAfBggrBgEFBQcwAYYTaHR0
cDovLzEyNy4wLjAuMTo4MTANBgkqhkiG9w0BAQsFAAOCAQEApNhtTAIdDr5cIwVN
sDwUyZv2SNq8SFBagsSjlFOR+uz0+iHq2BtWky7MuXLV7nW6byfnXUB+B594xBks
lyDKhqXhXLwDJvBzgQm/jEu3/+xY4ze5IEJA+gcnhdRLpPksg+gYK7UGYb1ayI4f
HKFTuWFpl+DLhtYr8BZ3Zfp7mGpIFcScH4Oah9PGVStF7GuuE15s5BOmIdD7IEmM
kmleD9UGNpg3Ad+2KxMpYi60ZM24+YXfWWObrz8eDwLVc6C0OEAIGsGLo8/JdmKR
hzGDppiL5fHUKcbAS7oVW/NMF8RermQ3IO4oakbpg4fOQ6hm2DjHTL68/+27HBdb
/RtqTQ==
-----END CERTIFICATE-----
