Certificate:
    Data:
        Version: 3 (0x2)
        Serial Number: 1 (0x1)
        Signature Algorithm: sha256WithRSAEncryption
        Issuer: C=PT, ST=Coimbra, L=Coimbra, O=UC, OU=DEI, CN=CA-Coimbra/emailAddress=ca-coimbra@gmail.com
        Validity
            Not Before: Mar 10 19:04:12 2022 GMT
            Not After : Mar 10 19:04:12 2023 GMT
        Subject: C=PT, ST=Coimbra, O=UC, OU=DEI, CN=OCSP/emailAddress=ocsp@gmail.com
        Subject Public Key Info:
            Public Key Algorithm: rsaEncryption
                RSA Public-Key: (2048 bit)
                Modulus:
                    00:d5:1c:50:c9:32:0b:65:11:62:c3:f2:49:7b:35:
                    9a:0a:86:e6:0e:28:26:93:86:31:3d:f5:1b:dc:0e:
                    a4:47:60:a7:7b:19:a7:3a:3f:4b:98:91:7c:d2:21:
                    68:00:8e:fa:8d:61:75:79:1b:be:8e:3c:66:ab:c3:
                    99:80:8f:ec:7a:83:51:2b:41:0d:81:57:4c:c8:36:
                    c5:cf:69:5c:4c:12:a6:49:20:b3:af:95:3c:69:a6:
                    20:74:5e:04:0d:4e:cd:d1:e8:44:93:94:09:0d:3f:
                    0d:26:da:85:c9:a2:87:00:0a:c5:49:c0:23:d4:06:
                    0f:b5:e3:c3:1b:df:46:04:50:8d:3a:73:a2:3b:d7:
                    55:5c:a2:b1:e6:43:5f:c9:56:3b:fa:7a:b0:26:99:
                    0e:9c:8a:f5:b8:97:22:0d:30:96:f7:da:8a:3f:0c:
                    6e:74:f0:fe:f7:68:14:2a:d8:84:ff:f6:95:8d:f7:
                    59:a8:d0:67:3b:fe:20:ca:1d:2c:43:a6:67:fb:b6:
                    79:19:ab:c5:53:f7:b5:6e:a2:69:bc:d6:1e:7e:0f:
                    39:a5:09:1c:6e:37:f5:2d:f4:a7:b9:53:74:e3:90:
                    e9:ab:30:de:0a:d3:e5:1f:27:08:64:a3:ed:c3:96:
                    ab:25:51:a3:3c:73:da:3d:1d:ec:63:16:52:de:6e:
                    d5:f5
                Exponent: 65537 (0x10001)
        X509v3 extensions:
            X509v3 Basic Constraints: 
                CA:FALSE
            X509v3 Key Usage: 
                Digital Signature, Non Repudiation, Key Encipherment
            X509v3 Extended Key Usage: 
                OCSP Signing
    Signature Algorithm: sha256WithRSAEncryption
         3f:0b:bb:80:cd:15:0e:39:a8:ac:db:62:98:a5:be:a7:09:70:
         1a:ea:d9:ae:b6:1e:47:e4:a1:99:c1:4b:01:1d:4c:77:2e:c8:
         71:cc:c3:e5:c9:e0:f0:76:49:25:37:eb:6e:bb:b8:a3:b9:0d:
         b7:44:c1:b0:52:2d:48:1b:24:c5:44:20:2c:50:84:3e:b8:61:
         0f:16:7f:2d:04:8e:90:ac:3d:65:56:b1:fc:7d:b6:be:b3:a1:
         dd:77:0c:97:a0:cc:ff:04:6e:10:ab:6a:da:3f:11:cb:7b:93:
         30:f4:d0:76:e1:5d:4a:61:52:29:fd:99:41:4d:48:98:25:3f:
         12:27:cb:ad:56:3b:02:1d:9f:59:56:d0:87:5a:3d:8c:36:eb:
         e4:b1:bb:c7:ca:ec:21:10:40:4a:9a:75:3f:91:69:2b:b6:48:
         62:94:a3:19:55:f7:80:40:e0:90:0f:56:45:86:fc:81:ad:41:
         4e:2c:0f:41:1d:3d:be:d2:30:cc:7d:e6:fc:20:de:f1:7e:6a:
         b8:08:95:08:d2:6b:e4:7e:5a:7f:31:d9:60:21:4d:fe:96:8f:
         eb:6c:55:68:ef:fa:82:21:85:c1:60:9c:3f:b5:d4:03:a8:2d:
         87:03:d1:33:33:10:9e:4e:e0:d8:70:ae:1b:63:fb:bc:a3:12:
         e8:40:0b:3a
-----BEGIN CERTIFICATE-----
MIIDmTCCAoGgAwIBAgIBATANBgkqhkiG9w0BAQsFADCBhjELMAkGA1UEBhMCUFQx
EDAOBgNVBAgMB0NvaW1icmExEDAOBgNVBAcMB0NvaW1icmExCzAJBgNVBAoMAlVD
MQwwCgYDVQQLDANERUkxEzARBgNVBAMMCkNBLUNvaW1icmExIzAhBgkqhkiG9w0B
CQEWFGNhLWNvaW1icmFAZ21haWwuY29tMB4XDTIyMDMxMDE5MDQxMloXDTIzMDMx
MDE5MDQxMlowaDELMAkGA1UEBhMCUFQxEDAOBgNVBAgMB0NvaW1icmExCzAJBgNV
BAoMAlVDMQwwCgYDVQQLDANERUkxDTALBgNVBAMMBE9DU1AxHTAbBgkqhkiG9w0B
CQEWDm9jc3BAZ21haWwuY29tMIIBIjANBgkqhkiG9w0BAQEFAAOCAQ8AMIIBCgKC
AQEA1RxQyTILZRFiw/JJezWaCobmDigmk4YxPfUb3A6kR2CnexmnOj9LmJF80iFo
AI76jWF1eRu+jjxmq8OZgI/seoNRK0ENgVdMyDbFz2lcTBKmSSCzr5U8aaYgdF4E
DU7N0ehEk5QJDT8NJtqFyaKHAArFScAj1AYPtePDG99GBFCNOnOiO9dVXKKx5kNf
yVY7+nqwJpkOnIr1uJciDTCW99qKPwxudPD+92gUKtiE//aVjfdZqNBnO/4gyh0s
Q6Zn+7Z5GavFU/e1bqJpvNYefg85pQkcbjf1LfSnuVN045DpqzDeCtPlHycIZKPt
w5arJVGjPHPaPR3sYxZS3m7V9QIDAQABoy8wLTAJBgNVHRMEAjAAMAsGA1UdDwQE
AwIF4DATBgNVHSUEDDAKBggrBgEFBQcDCTANBgkqhkiG9w0BAQsFAAOCAQEAPwu7
gM0VDjmorNtimKW+pwlwGurZrrYeR+ShmcFLAR1Mdy7IcczD5cng8HZJJTfrbru4
o7kNt0TBsFItSBskxUQgLFCEPrhhDxZ/LQSOkKw9ZVax/H22vrOh3XcMl6DM/wRu
EKtq2j8Ry3uTMPTQduFdSmFSKf2ZQU1ImCU/EifLrVY7Ah2fWVbQh1o9jDbr5LG7
x8rsIRBASpp1P5FpK7ZIYpSjGVX3gEDgkA9WRYb8ga1BTiwPQR09vtIwzH3m/CDe
8X5quAiVCNJr5H5afzHZYCFN/paP62xVaO/6giGFwWCcP7XUA6gthwPRMzMQnk7g
2HCuG2P7vKMS6EALOg==
-----END CERTIFICATE-----
