Certificate:
    Data:
        Version: 3 (0x2)
        Serial Number: 5 (0x5)
        Signature Algorithm: sha256WithRSAEncryption
        Issuer: C=PT, ST=Coimbra, L=Coimbra, O=UC, OU=DEI, CN=CA-Coimbra/emailAddress=ca-coimbra@gmail.com
        Validity
            Not Before: Mar 10 23:00:02 2022 GMT
            Not After : Mar 10 23:00:02 2023 GMT
        Subject: C=PT, ST=Coimbra, O=UC, OU=DEI, CN=TUN1-Lisboa/emailAddress=tun1-lisboa@gmail.com
        Subject Public Key Info:
            Public Key Algorithm: rsaEncryption
                RSA Public-Key: (2048 bit)
                Modulus:
                    00:d5:95:c0:04:e2:da:75:72:49:12:b8:87:90:a3:
                    08:14:1b:96:1b:a8:ad:a1:be:e1:af:18:3b:ef:8c:
                    2e:bd:fc:c1:9a:85:27:32:94:f7:da:24:99:f0:c7:
                    e9:aa:30:93:96:8c:ef:62:1a:e9:b2:52:ff:cf:8c:
                    6c:aa:4f:0d:05:73:e1:05:75:32:4b:04:40:01:df:
                    a5:e1:87:8b:ab:c5:b2:20:f2:ea:3c:74:0d:01:c6:
                    04:35:3b:6a:e1:3f:07:9e:e9:76:ab:82:bd:70:45:
                    10:66:47:44:46:60:a2:1f:83:f4:2c:d2:02:8f:84:
                    54:3b:bf:38:32:87:30:45:b7:3c:20:23:38:51:da:
                    47:f2:7d:bf:44:e6:8c:f3:6a:d9:e1:fb:5e:67:f2:
                    17:1f:b1:01:b7:75:bd:75:b4:de:e5:a4:ef:2e:9c:
                    13:52:38:bb:8c:54:2a:33:d8:17:ba:dc:a1:36:7f:
                    85:53:b1:5f:bd:9b:ad:7f:c7:b7:83:54:f6:8f:28:
                    ef:a9:5b:20:38:ce:0e:9c:89:da:ec:08:71:6c:46:
                    82:d2:60:94:7d:a3:38:88:80:97:4d:35:1f:16:f4:
                    7d:f3:75:c3:50:b6:0a:41:52:e3:6b:b3:dd:25:e3:
                    30:97:ca:15:7a:b9:65:11:9f:d5:6a:98:df:36:b0:
                    0b:2b
                Exponent: 65537 (0x10001)
        X509v3 extensions:
            X509v3 Basic Constraints: 
                CA:FALSE
            Netscape Comment: 
                OpenSSL Generated Certificate
            X509v3 Subject Key Identifier: 
                DA:02:F1:E0:B6:2F:2E:BB:B4:2D:B7:2B:88:FC:D6:B9:F1:A8:F2:62
            X509v3 Authority Key Identifier: 
                DirName:/C=PT/ST=Coimbra/L=Coimbra/O=UC/OU=DEI/CN=CA-Coimbra/emailAddress=ca-coimbra@gmail.com
                serial:41:12:1B:51:63:C6:99:08:DB:2C:81:E7:4C:04:34:D5:3E:F6:E4:CD

            Authority Information Access: 
                OCSP - URI:http://127.0.0.1:81

    Signature Algorithm: sha256WithRSAEncryption
         3e:26:eb:71:78:a2:dd:9c:d5:92:34:b0:6b:2c:c1:27:a3:d2:
         74:71:21:3a:b9:43:46:6d:8c:fd:4a:c0:f4:5e:62:b5:ad:bb:
         51:36:ff:70:d8:10:2d:13:42:c7:2b:cf:70:bd:a5:54:1d:6c:
         c3:86:d5:f3:fd:02:98:71:73:d7:0f:7d:45:bd:fe:33:73:35:
         30:3c:83:a7:bd:f8:95:53:ea:50:2a:44:7a:43:48:64:e6:38:
         4d:d4:67:c9:6c:e9:51:22:37:9c:34:ed:13:f0:59:54:b8:b8:
         20:ca:7f:d5:62:86:0e:93:12:a1:2d:59:be:d3:91:c1:17:37:
         bf:a3:7f:fc:62:59:0a:0b:88:57:cf:a1:0b:94:30:a8:7d:20:
         27:fb:dd:87:46:f6:c7:cc:e8:4b:78:37:07:d5:95:49:62:b7:
         ba:1a:d6:6d:8a:e9:6a:68:ad:35:8e:e2:1b:a3:9c:05:d8:ea:
         dd:30:23:fa:05:ec:aa:24:fa:be:18:8d:dd:ba:9d:55:b8:6d:
         01:f5:af:2c:b6:85:9e:bc:8c:09:f0:fb:0a:04:dd:6d:68:7d:
         26:76:93:4e:73:db:1e:4f:a4:e7:22:a7:8d:27:1d:34:f6:77:
         6c:fa:82:7a:6b:cd:17:d0:e4:0b:08:a6:65:5d:b4:d6:06:f2:
         21:fc:4d:51
-----BEGIN CERTIFICATE-----
MIIEujCCA6KgAwIBAgIBBTANBgkqhkiG9w0BAQsFADCBhjELMAkGA1UEBhMCUFQx
EDAOBgNVBAgMB0NvaW1icmExEDAOBgNVBAcMB0NvaW1icmExCzAJBgNVBAoMAlVD
MQwwCgYDVQQLDANERUkxEzARBgNVBAMMCkNBLUNvaW1icmExIzAhBgkqhkiG9w0B
CQEWFGNhLWNvaW1icmFAZ21haWwuY29tMB4XDTIyMDMxMDIzMDAwMloXDTIzMDMx
MDIzMDAwMlowdjELMAkGA1UEBhMCUFQxEDAOBgNVBAgMB0NvaW1icmExCzAJBgNV
BAoMAlVDMQwwCgYDVQQLDANERUkxFDASBgNVBAMMC1RVTjEtTGlzYm9hMSQwIgYJ
KoZIhvcNAQkBFhV0dW4xLWxpc2JvYUBnbWFpbC5jb20wggEiMA0GCSqGSIb3DQEB
AQUAA4IBDwAwggEKAoIBAQDVlcAE4tp1ckkSuIeQowgUG5YbqK2hvuGvGDvvjC69
/MGahScylPfaJJnwx+mqMJOWjO9iGumyUv/PjGyqTw0Fc+EFdTJLBEAB36Xhh4ur
xbIg8uo8dA0BxgQ1O2rhPwee6Xargr1wRRBmR0RGYKIfg/Qs0gKPhFQ7vzgyhzBF
tzwgIzhR2kfyfb9E5ozzatnh+15n8hcfsQG3db11tN7lpO8unBNSOLuMVCoz2Be6
3KE2f4VTsV+9m61/x7eDVPaPKO+pWyA4zg6cidrsCHFsRoLSYJR9oziIgJdNNR8W
9H3zdcNQtgpBUuNrs90l4zCXyhV6uWURn9VqmN82sAsrAgMBAAGjggFAMIIBPDAJ
BgNVHRMEAjAAMCwGCWCGSAGG+EIBDQQfFh1PcGVuU1NMIEdlbmVyYXRlZCBDZXJ0
aWZpY2F0ZTAdBgNVHQ4EFgQU2gLx4LYvLru0LbcriPzWufGo8mIwgbAGA1UdIwSB
qDCBpaGBjKSBiTCBhjELMAkGA1UEBhMCUFQxEDAOBgNVBAgMB0NvaW1icmExEDAO
BgNVBAcMB0NvaW1icmExCzAJBgNVBAoMAlVDMQwwCgYDVQQLDANERUkxEzARBgNV
BAMMCkNBLUNvaW1icmExIzAhBgkqhkiG9w0BCQEWFGNhLWNvaW1icmFAZ21haWwu
Y29tghRBEhtRY8aZCNssgedMBDTVPvbkzTAvBggrBgEFBQcBAQQjMCEwHwYIKwYB
BQUHMAGGE2h0dHA6Ly8xMjcuMC4wLjE6ODEwDQYJKoZIhvcNAQELBQADggEBAD4m
63F4ot2c1ZI0sGsswSej0nRxITq5Q0ZtjP1KwPReYrWtu1E2/3DYEC0TQscrz3C9
pVQdbMOG1fP9Aphxc9cPfUW9/jNzNTA8g6e9+JVT6lAqRHpDSGTmOE3UZ8ls6VEi
N5w07RPwWVS4uCDKf9Vihg6TEqEtWb7TkcEXN7+jf/xiWQoLiFfPoQuUMKh9ICf7
3YdG9sfM6Et4NwfVlUlit7oa1m2K6WporTWO4hujnAXY6t0wI/oF7Kok+r4Yjd26
nVW4bQH1ryy2hZ68jAnw+woE3W1ofSZ2k05z2x5PpOcip40nHTT2d2z6gnprzRfQ
5AsIpmVdtNYG8iH8TVE=
-----END CERTIFICATE-----
