Certificate:
    Data:
        Version: 3 (0x2)
        Serial Number: 4 (0x4)
        Signature Algorithm: sha256WithRSAEncryption
        Issuer: C=PT, ST=Coimbra, L=Coimbra, O=UC, OU=DEI, CN=CA-Coimbra/emailAddress=ca-coimbra@gmail.com
        Validity
            Not Before: Mar 10 19:44:18 2022 GMT
            Not After : Mar 10 19:44:18 2023 GMT
        Subject: C=PT, ST=Coimbra, O=UC, OU=DEI, CN=TUN1-Coimbra/emailAddress=tun1-coimbra@gmail.com
        Subject Public Key Info:
            Public Key Algorithm: rsaEncryption
                RSA Public-Key: (2048 bit)
                Modulus:
                    00:cc:4f:9c:e6:60:45:8e:a1:3c:13:83:76:49:da:
                    cd:a4:c7:80:4c:ae:43:01:e3:3e:3a:be:43:16:0f:
                    e0:b2:e4:6c:86:9a:c7:5a:12:bb:f9:3d:0d:45:6e:
                    53:cd:c7:02:e3:99:11:f2:79:6f:f9:f8:5b:af:57:
                    b6:66:97:dd:53:32:39:40:bd:44:8d:98:78:84:f2:
                    51:0a:90:57:03:f0:c5:f0:9a:7d:1f:91:0e:42:6f:
                    ed:f8:f9:5e:3b:ac:bc:02:0c:ce:3e:c9:eb:64:c3:
                    cb:13:03:e2:ff:c4:24:8f:aa:4f:d2:73:6b:9d:5b:
                    f8:76:6e:93:ad:5b:e9:13:e3:a7:3e:72:96:92:58:
                    17:b9:6d:26:df:98:b6:25:27:4e:c4:cd:ba:50:07:
                    45:59:9a:16:7e:78:13:59:f0:25:b1:4a:08:42:0b:
                    6d:77:3c:8a:22:bd:bf:55:9c:a6:f3:20:af:1f:8f:
                    89:62:07:5a:be:a1:4f:9f:50:e5:c3:63:b8:9d:f2:
                    75:dc:78:a5:96:77:51:97:0c:fd:0c:21:55:b6:cb:
                    d1:d6:e1:e2:37:23:1d:9a:c0:85:a8:8c:03:7b:3e:
                    9c:14:fa:50:da:3e:0a:a7:57:92:be:69:4a:d0:3b:
                    a8:d9:29:c4:51:e3:b9:f3:13:ce:11:79:a6:3f:b8:
                    50:23
                Exponent: 65537 (0x10001)
        X509v3 extensions:
            X509v3 Basic Constraints: 
                CA:FALSE
            Netscape Comment: 
                OpenSSL Generated Certificate
            X509v3 Subject Key Identifier: 
                24:74:CA:96:13:EC:6B:5F:45:64:1D:13:E6:30:43:22:E6:CC:01:E9
            X509v3 Authority Key Identifier: 
                DirName:/C=PT/ST=Coimbra/L=Coimbra/O=UC/OU=DEI/CN=CA-Coimbra/emailAddress=ca-coimbra@gmail.com
                serial:41:12:1B:51:63:C6:99:08:DB:2C:81:E7:4C:04:34:D5:3E:F6:E4:CD

            Authority Information Access: 
                OCSP - URI:http://127.0.0.1:81

    Signature Algorithm: sha256WithRSAEncryption
         9c:16:5d:09:17:f6:e8:b5:cf:b1:09:8f:a4:9e:82:9e:87:21:
         ea:94:d1:57:e0:ed:10:31:a1:89:b9:8a:47:2f:8a:c6:b5:8c:
         86:6e:ea:27:76:39:0d:ec:c3:31:16:a2:c1:fa:2f:aa:97:68:
         ca:7c:de:b0:38:54:3a:8d:33:cb:29:a6:07:36:e8:ed:5e:e7:
         0d:59:44:70:56:29:dc:2b:ea:63:b8:ac:4b:23:ab:fc:81:9c:
         26:3b:71:26:87:10:20:4f:f6:70:20:43:06:de:4a:39:97:4f:
         8a:a9:38:0e:3e:4a:5f:11:c7:3a:8b:28:a1:5c:6f:ed:68:f5:
         2f:30:d3:52:7a:8d:50:c4:82:9d:cc:c3:3c:d5:95:ac:58:3a:
         43:1d:15:47:c7:d4:4e:9c:59:61:c7:b6:44:27:88:fd:87:b6:
         00:50:2b:73:96:5d:09:78:40:9b:5f:8a:67:e3:87:20:8f:70:
         10:f6:1d:ae:0e:ed:51:96:58:46:d2:46:9c:90:2e:8c:29:d2:
         de:86:b3:78:14:74:cc:a7:c9:ff:b6:8b:0b:30:e3:c4:61:80:
         8c:d8:21:55:17:30:0a:3f:88:9e:24:bc:00:3c:47:f3:8b:74:
         06:9b:cb:80:17:84:8f:3c:43:e3:36:fd:fc:96:8b:8b:87:32:
         af:86:8b:dc
-----BEGIN CERTIFICATE-----
MIIEvDCCA6SgAwIBAgIBBDANBgkqhkiG9w0BAQsFADCBhjELMAkGA1UEBhMCUFQx
EDAOBgNVBAgMB0NvaW1icmExEDAOBgNVBAcMB0NvaW1icmExCzAJBgNVBAoMAlVD
MQwwCgYDVQQLDANERUkxEzARBgNVBAMMCkNBLUNvaW1icmExIzAhBgkqhkiG9w0B
CQEWFGNhLWNvaW1icmFAZ21haWwuY29tMB4XDTIyMDMxMDE5NDQxOFoXDTIzMDMx
MDE5NDQxOFoweDELMAkGA1UEBhMCUFQxEDAOBgNVBAgMB0NvaW1icmExCzAJBgNV
BAoMAlVDMQwwCgYDVQQLDANERUkxFTATBgNVBAMMDFRVTjEtQ29pbWJyYTElMCMG
CSqGSIb3DQEJARYWdHVuMS1jb2ltYnJhQGdtYWlsLmNvbTCCASIwDQYJKoZIhvcN
AQEBBQADggEPADCCAQoCggEBAMxPnOZgRY6hPBODdknazaTHgEyuQwHjPjq+QxYP
4LLkbIaax1oSu/k9DUVuU83HAuOZEfJ5b/n4W69XtmaX3VMyOUC9RI2YeITyUQqQ
VwPwxfCafR+RDkJv7fj5XjusvAIMzj7J62TDyxMD4v/EJI+qT9Jza51b+HZuk61b
6RPjpz5ylpJYF7ltJt+YtiUnTsTNulAHRVmaFn54E1nwJbFKCEILbXc8iiK9v1Wc
pvMgrx+PiWIHWr6hT59Q5cNjuJ3yddx4pZZ3UZcM/QwhVbbL0dbh4jcjHZrAhaiM
A3s+nBT6UNo+CqdXkr5pStA7qNkpxFHjufMTzhF5pj+4UCMCAwEAAaOCAUAwggE8
MAkGA1UdEwQCMAAwLAYJYIZIAYb4QgENBB8WHU9wZW5TU0wgR2VuZXJhdGVkIENl
cnRpZmljYXRlMB0GA1UdDgQWBBQkdMqWE+xrX0VkHRPmMEMi5swB6TCBsAYDVR0j
BIGoMIGloYGMpIGJMIGGMQswCQYDVQQGEwJQVDEQMA4GA1UECAwHQ29pbWJyYTEQ
MA4GA1UEBwwHQ29pbWJyYTELMAkGA1UECgwCVUMxDDAKBgNVBAsMA0RFSTETMBEG
A1UEAwwKQ0EtQ29pbWJyYTEjMCEGCSqGSIb3DQEJARYUY2EtY29pbWJyYUBnbWFp
bC5jb22CFEESG1FjxpkI2yyB50wENNU+9uTNMC8GCCsGAQUFBwEBBCMwITAfBggr
BgEFBQcwAYYTaHR0cDovLzEyNy4wLjAuMTo4MTANBgkqhkiG9w0BAQsFAAOCAQEA
nBZdCRf26LXPsQmPpJ6Cnoch6pTRV+DtEDGhibmKRy+KxrWMhm7qJ3Y5DezDMRai
wfovqpdoynzesDhUOo0zyymmBzbo7V7nDVlEcFYp3CvqY7isSyOr/IGcJjtxJocQ
IE/2cCBDBt5KOZdPiqk4Dj5KXxHHOosooVxv7Wj1LzDTUnqNUMSCnczDPNWVrFg6
Qx0VR8fUTpxZYce2RCeI/Ye2AFArc5ZdCXhAm1+KZ+OHII9wEPYdrg7tUZZYRtJG
nJAujCnS3oazeBR0zKfJ/7aLCzDjxGGAjNghVRcwCj+IniS8ADxH84t0BpvLgBeE
jzxD4zb9/JaLi4cyr4aL3A==
-----END CERTIFICATE-----
